target datalayout = "e-m:e-p270:32:32-p271:32:32-p272:64:64-i64:64-i128:128-f80:128-n8:16:32:64-S128"
target triple = "x86_64-pc-linux-gnu"

%struct.strbuf = type { i64, i64, ptr }

@.str.36 = private unnamed_addr constant [14 x i8] c"objects/%.*s/\00", align 1
@__const.get_remote_object_url.buf = private unnamed_addr constant %struct.strbuf { i64 0, i64 0, ptr @strbuf_slopbuf }, align 8

; Function Attrs: inlinehint nounwind uwtable
define internal void @strbuf_addstr(ptr noundef %0, ptr noundef %1) #5 {
  %3 = alloca ptr, align 8
  %4 = alloca ptr, align 8
  store ptr %0, ptr %3, align 8, !tbaa !21
  store ptr %1, ptr %4, align 8, !tbaa !4
  %5 = load ptr, ptr %3, align 8, !tbaa !21
  %6 = load ptr, ptr %4, align 8, !tbaa !4
  %7 = load ptr, ptr %4, align 8, !tbaa !4
  %8 = call i64 @strlen(ptr noundef %7) #13
  call void @strbuf_add(ptr noundef %5, ptr noundef %6, i64 noundef %8)
  ret void
}

; Function Attrs: nounwind uwtable
define dso_local void @append_remote_object_url(ptr noundef %0, ptr noundef %1, ptr noundef %2, i32 noundef %3) #0 {
  %5 = alloca ptr, align 8
  %6 = alloca ptr, align 8
  %7 = alloca ptr, align 8
  %8 = alloca i32, align 4
  store ptr %0, ptr %5, align 8, !tbaa !21
  store ptr %1, ptr %6, align 8, !tbaa !4
  store ptr %2, ptr %7, align 8, !tbaa !4
  store i32 %3, ptr %8, align 4, !tbaa !19
  %9 = load ptr, ptr %5, align 8, !tbaa !21
  %10 = load ptr, ptr %6, align 8, !tbaa !4
  call void @end_url_with_slash(ptr noundef %9, ptr noundef %10)
  %11 = load ptr, ptr %5, align 8, !tbaa !21
  %12 = load ptr, ptr %7, align 8, !tbaa !4
  call void (ptr, ptr, ...) @strbuf_addf(ptr noundef %11, ptr noundef @.str.36, i32 noundef 2, ptr noundef %12)
  %13 = load i32, ptr %8, align 4, !tbaa !19
  %14 = icmp ne i32 %13, 0
  br i1 %14, label %19, label %15

15:                                               ; preds = %4
  %16 = load ptr, ptr %5, align 8, !tbaa !21
  %17 = load ptr, ptr %7, align 8, !tbaa !4
  %18 = getelementptr inbounds i8, ptr %17, i64 2
  call void @strbuf_addstr(ptr noundef %16, ptr noundef %18)
  br label %19

19:                                               ; preds = %15, %4
  ret void
}

; Function Attrs: nounwind uwtable
define dso_local ptr @get_remote_object_url(ptr noundef %0, ptr noundef %1, i32 noundef %2) #0 {
  %4 = alloca ptr, align 8
  %5 = alloca ptr, align 8
  %6 = alloca i32, align 4
  %7 = alloca %struct.strbuf, align 8
  store ptr %0, ptr %4, align 8, !tbaa !4
  store ptr %1, ptr %5, align 8, !tbaa !4
  store i32 %2, ptr %6, align 4, !tbaa !19
  call void @llvm.lifetime.start.p0(i64 24, ptr %7) #11
  call void @llvm.memcpy.p0.p0.i64(ptr align 8 %7, ptr align 8 @__const.get_remote_object_url.buf, i64 24, i1 false)
  %8 = load ptr, ptr %4, align 8, !tbaa !4
  %9 = load ptr, ptr %5, align 8, !tbaa !4
  %10 = load i32, ptr %6, align 4, !tbaa !19
  call void @append_remote_object_url(ptr noundef %7, ptr noundef %8, ptr noundef %9, i32 noundef %10)
  %11 = call ptr @strbuf_detach(ptr noundef %7, ptr noundef null)
  call void @llvm.lifetime.end.p0(i64 24, ptr %7) #11
  ret ptr %11
}