; Function Attrs: nounwind uwtable
define dso_local ptr @get_remote_object_url(ptr noundef %0, ptr noundef %1, i32 noundef %2) local_unnamed_addr #3 {
  %4 = alloca %struct.strbuf, align 8
  call void @llvm.lifetime.start.p0(i64 24, ptr nonnull %4) #22
  call void @llvm.memcpy.p0.p0.i64(ptr noundef nonnull align 8 dereferenceable(24) %4, ptr noundef nonnull align 8 dereferenceable(24) @__const.fetch_pack_index.buf, i64 24, i1 false)
  call void @end_url_with_slash(ptr noundef nonnull %4, ptr noundef %0) #22
  call void (ptr, ptr, ...) @strbuf_addf(ptr noundef nonnull %4, ptr noundef nonnull @.str.36, i32 noundef 2, ptr noundef %1) #22
  %.not.i = icmp eq i32 %2, 0
  br i1 %.not.i, label %5, label %append_remote_object_url.exit

5:                                                ; preds = %3
  %6 = getelementptr inbounds nuw i8, ptr %1, i64 2
  %7 = call i64 @strlen(ptr noundef nonnull dereferenceable(1) %6) #23
  call void @strbuf_add(ptr noundef nonnull %4, ptr noundef nonnull %6, i64 noundef %7) #22
  br label %append_remote_object_url.exit

append_remote_object_url.exit:                    ; preds = %3, %5
  %8 = call ptr @strbuf_detach(ptr noundef nonnull %4, ptr noundef null) #22
  call void @llvm.lifetime.end.p0(i64 24, ptr nonnull %4) #22
  ret ptr %8
}